; Function Attrs: mustprogress uwtable
define internal void @_ZL29__Layer_c_api_layer_destroyerPN4ncnn5LayerEPv(ptr nocapture noundef readonly %0, ptr nocapture noundef readonly %1) #1 {
  %3 = getelementptr inbounds nuw i8, ptr %0, i64 32
  %4 = load ptr, ptr %3, align 8
  %5 = getelementptr inbounds nuw i8, ptr %1, i64 8
  %6 = load ptr, ptr %5, align 8
  %7 = getelementptr inbounds nuw i8, ptr %1, i64 16
  %8 = load ptr, ptr %7, align 8
  tail call void %6(ptr noundef %4, ptr noundef %8)
  ret void
}